target datalayout = "e-m:e-p270:32:32-p271:32:32-p272:64:64-i64:64-i128:128-f80:128-n8:16:32:64-S128"
target triple = "x86_64-pc-linux-gnu"

%struct.pg_tm = type { i32, i32, i32, i32, i32, i32, i32, i32, i32, i64, ptr }
%struct.FunctionCallInfoBaseData = type { ptr, ptr, ptr, i32, i8, i16, [0 x %struct.NullableDatum] }
%struct.NullableDatum = type { i64, i8 }

@DateStyle = external global i32, align 4

; Function Attrs: inlinehint nounwind uwtable
define internal i64 @PointerGetDatum(ptr noundef %0) #4 {
  %2 = alloca ptr, align 8
  store ptr %0, ptr %2, align 8
  %3 = load ptr, ptr %2, align 8
  %4 = ptrtoint ptr %3 to i64
  ret i64 %4
}

; Function Attrs: inlinehint nounwind uwtable
define internal i64 @DatumGetInt64(i64 noundef %0) #4 {
  %2 = alloca i64, align 8
  store i64 %0, ptr %2, align 8
  %3 = load i64, ptr %2, align 8
  ret i64 %3
}

; Function Attrs: inlinehint nounwind uwtable
define internal i64 @CStringGetDatum(ptr noundef %0) #4 {
  %2 = alloca ptr, align 8
  store ptr %0, ptr %2, align 8
  %3 = load ptr, ptr %2, align 8
  %4 = call i64 @PointerGetDatum(ptr noundef %3)
  ret i64 %4
}

; Function Attrs: nounwind uwtable
define dso_local i32 @time2tm(i64 noundef %0, ptr noundef %1, ptr noundef %2) #0 {
  %4 = alloca i64, align 8
  %5 = alloca ptr, align 8
  %6 = alloca ptr, align 8
  store i64 %0, ptr %4, align 8
  store ptr %1, ptr %5, align 8
  store ptr %2, ptr %6, align 8
  %7 = load i64, ptr %4, align 8
  %8 = sdiv i64 %7, 3600000000
  %9 = trunc i64 %8 to i32
  %10 = load ptr, ptr %5, align 8
  %11 = getelementptr inbounds nuw %struct.pg_tm, ptr %10, i32 0, i32 2
  store i32 %9, ptr %11, align 8
  %12 = load ptr, ptr %5, align 8
  %13 = getelementptr inbounds nuw %struct.pg_tm, ptr %12, i32 0, i32 2
  %14 = load i32, ptr %13, align 8
  %15 = sext i32 %14 to i64
  %16 = mul i64 %15, 3600000000
  %17 = load i64, ptr %4, align 8
  %18 = sub i64 %17, %16
  store i64 %18, ptr %4, align 8
  %19 = load i64, ptr %4, align 8
  %20 = sdiv i64 %19, 60000000
  %21 = trunc i64 %20 to i32
  %22 = load ptr, ptr %5, align 8
  %23 = getelementptr inbounds nuw %struct.pg_tm, ptr %22, i32 0, i32 1
  store i32 %21, ptr %23, align 4
  %24 = load ptr, ptr %5, align 8
  %25 = getelementptr inbounds nuw %struct.pg_tm, ptr %24, i32 0, i32 1
  %26 = load i32, ptr %25, align 4
  %27 = sext i32 %26 to i64
  %28 = mul i64 %27, 60000000
  %29 = load i64, ptr %4, align 8
  %30 = sub i64 %29, %28
  store i64 %30, ptr %4, align 8
  %31 = load i64, ptr %4, align 8
  %32 = sdiv i64 %31, 1000000
  %33 = trunc i64 %32 to i32
  %34 = load ptr, ptr %5, align 8
  %35 = getelementptr inbounds nuw %struct.pg_tm, ptr %34, i32 0, i32 0
  store i32 %33, ptr %35, align 8
  %36 = load ptr, ptr %5, align 8
  %37 = getelementptr inbounds nuw %struct.pg_tm, ptr %36, i32 0, i32 0
  %38 = load i32, ptr %37, align 8
  %39 = sext i32 %38 to i64
  %40 = mul i64 %39, 1000000
  %41 = load i64, ptr %4, align 8
  %42 = sub i64 %41, %40
  store i64 %42, ptr %4, align 8
  %43 = load i64, ptr %4, align 8
  %44 = trunc i64 %43 to i32
  %45 = load ptr, ptr %6, align 8
  store i32 %44, ptr %45, align 4
  ret i32 0
}

; Function Attrs: inlinehint nounwind uwtable
define internal i64 @DatumGetTimeADT(i64 noundef %0) #4 {
  %2 = alloca i64, align 8
  store i64 %0, ptr %2, align 8
  %3 = load i64, ptr %2, align 8
  %4 = call i64 @DatumGetInt64(i64 noundef %3)
  ret i64 %4
}

; Function Attrs: nounwind uwtable
define dso_local i64 @time_out(ptr noundef %0) #0 {
  %2 = alloca ptr, align 8
  %3 = alloca i64, align 8
  %4 = alloca ptr, align 8
  %5 = alloca %struct.pg_tm, align 8
  %6 = alloca ptr, align 8
  %7 = alloca i32, align 4
  %8 = alloca [129 x i8], align 16
  store ptr %0, ptr %2, align 8
  call void @llvm.lifetime.start.p0(i64 8, ptr %3) #9
  %9 = load ptr, ptr %2, align 8
  %10 = getelementptr inbounds nuw %struct.FunctionCallInfoBaseData, ptr %9, i32 0, i32 6
  %11 = getelementptr inbounds [0 x %struct.NullableDatum], ptr %10, i64 0, i64 0
  %12 = getelementptr inbounds nuw %struct.NullableDatum, ptr %11, i32 0, i32 0
  %13 = load i64, ptr %12, align 8
  %14 = call i64 @DatumGetTimeADT(i64 noundef %13)
  store i64 %14, ptr %3, align 8
  call void @llvm.lifetime.start.p0(i64 8, ptr %4) #9
  call void @llvm.lifetime.start.p0(i64 56, ptr %5) #9
  call void @llvm.lifetime.start.p0(i64 8, ptr %6) #9
  store ptr %5, ptr %6, align 8
  call void @llvm.lifetime.start.p0(i64 4, ptr %7) #9
  call void @llvm.lifetime.start.p0(i64 129, ptr %8) #9
  %15 = load i64, ptr %3, align 8
  %16 = load ptr, ptr %6, align 8
  %17 = call i32 @time2tm(i64 noundef %15, ptr noundef %16, ptr noundef %7)
  %18 = load ptr, ptr %6, align 8
  %19 = load i32, ptr %7, align 4
  %20 = load i32, ptr @DateStyle, align 4
  %21 = getelementptr inbounds [129 x i8], ptr %8, i64 0, i64 0
  call void @EncodeTimeOnly(ptr noundef %18, i32 noundef %19, i1 noundef zeroext false, i32 noundef 0, i32 noundef %20, ptr noundef %21)
  %22 = getelementptr inbounds [129 x i8], ptr %8, i64 0, i64 0
  %23 = call ptr @pstrdup(ptr noundef %22)
  store ptr %23, ptr %4, align 8
  %24 = load ptr, ptr %4, align 8
  %25 = call i64 @CStringGetDatum(ptr noundef %24)
  call void @llvm.lifetime.end.p0(i64 129, ptr %8) #9
  call void @llvm.lifetime.end.p0(i64 4, ptr %7) #9
  call void @llvm.lifetime.end.p0(i64 8, ptr %6) #9
  call void @llvm.lifetime.end.p0(i64 56, ptr %5) #9
  call void @llvm.lifetime.end.p0(i64 8, ptr %4) #9
  call void @llvm.lifetime.end.p0(i64 8, ptr %3) #9
  ret i64 %25
}