; Function Attrs: nounwind uwtable
define dso_local i64 @time_out(ptr noundef readonly captures(none) %0) local_unnamed_addr #0 {
  %2 = alloca %struct.pg_tm, align 8
  %3 = alloca [129 x i8], align 16
  %4 = getelementptr inbounds nuw i8, ptr %0, i64 32
  %5 = load i64, ptr %4, align 8
  call void @llvm.lifetime.start.p0(i64 56, ptr nonnull %2) #16
  call void @llvm.lifetime.start.p0(i64 129, ptr nonnull %3) #16
  %6 = sdiv i64 %5, 3600000000
  %7 = trunc i64 %6 to i32
  %8 = getelementptr inbounds nuw i8, ptr %2, i64 8
  store i32 %7, ptr %8, align 8
  %sext.i = shl i64 %6, 32
  %9 = ashr exact i64 %sext.i, 32
  %.neg.i = mul nsw i64 %9, -3600000000
  %10 = add i64 %.neg.i, %5
  %11 = sdiv i64 %10, 60000000
  %12 = trunc i64 %11 to i32
  %13 = getelementptr inbounds nuw i8, ptr %2, i64 4
  store i32 %12, ptr %13, align 4
  %sext13.i = shl i64 %11, 32
  %14 = ashr exact i64 %sext13.i, 32
  %.neg14.i = mul nsw i64 %14, -60000000
  %15 = add i64 %.neg14.i, %10
  %16 = sdiv i64 %15, 1000000
  %17 = trunc i64 %16 to i32
  store i32 %17, ptr %2, align 8
  %.neg16.i = mul i64 %16, 4293967296
  %18 = add i64 %.neg16.i, %15
  %19 = trunc i64 %18 to i32
  %20 = load i32, ptr @DateStyle, align 4
  call void @EncodeTimeOnly(ptr noundef nonnull %2, i32 noundef %19, i1 noundef zeroext false, i32 noundef 0, i32 noundef %20, ptr noundef nonnull %3) #16
  %21 = call ptr @pstrdup(ptr noundef nonnull %3) #16
  %22 = ptrtoint ptr %21 to i64
  call void @llvm.lifetime.end.p0(i64 129, ptr nonnull %3) #16
  call void @llvm.lifetime.end.p0(i64 56, ptr nonnull %2) #16
  ret i64 %22
}